; Function Attrs: nounwind uwtable
define hidden noundef nonnull ptr @xmlreader_objects_new(ptr noundef %0) #0 {
  %2 = getelementptr inbounds i8, ptr %0, i64 32
  %3 = load i32, ptr %2, align 8
  %4 = getelementptr inbounds i8, ptr %0, i64 28
  %5 = load i32, ptr %4, align 4
  %6 = lshr i32 %5, 11
  %.lobit = and i32 %6, 1
  %7 = xor i32 %.lobit, 1
  %8 = sub nsw i32 %3, %7
  %9 = sext i32 %8 to i64
  %10 = shl nsw i64 %9, 4
  %11 = add nsw i64 %10, 88
  %12 = tail call noalias ptr @_emalloc(i64 noundef %11) #13
  tail call void @llvm.memset.p0.i64(ptr noundef nonnull align 1 dereferenceable(32) %12, i8 0, i64 32, i1 false)
  %13 = getelementptr inbounds i8, ptr %12, i64 32
  tail call void @zend_object_std_init(ptr noundef nonnull %13, ptr noundef %0) #11
  tail call void @object_properties_init(ptr noundef nonnull %13, ptr noundef %0) #11
  %14 = getelementptr inbounds i8, ptr %12, i64 24
  store ptr @xmlreader_prop_handlers, ptr %14, align 8
  ret ptr %13
}